target datalayout = "e-m:e-p270:32:32-p271:32:32-p272:64:64-i64:64-i128:128-f80:128-n8:16:32:64-S128"
target triple = "x86_64-pc-linux-gnu"

%struct.slurm_select_ops_t = type { ptr, ptr, ptr, ptr, ptr, ptr, ptr, ptr, ptr, ptr, ptr, ptr, ptr, ptr, ptr, ptr, ptr, ptr, ptr, ptr, ptr, ptr, ptr, ptr, ptr, ptr, ptr, ptr, ptr, ptr, ptr, ptr }

@ops = internal global ptr null, align 8
@select_context_default = internal global i32 -1, align 4

; Function Attrs: nounwind uwtable
define dso_local i32 @select_g_job_resized(ptr noundef %0, ptr noundef %1) #0 {
  %3 = alloca ptr, align 8
  %4 = alloca ptr, align 8
  store ptr %0, ptr %3, align 8
  store ptr %1, ptr %4, align 8
  %5 = load ptr, ptr @ops, align 8
  %6 = load i32, ptr @select_context_default, align 4
  %7 = sext i32 %6 to i64
  %8 = getelementptr inbounds %struct.slurm_select_ops_t, ptr %5, i64 %7
  %9 = getelementptr inbounds nuw %struct.slurm_select_ops_t, ptr %8, i32 0, i32 9
  %10 = load ptr, ptr %9, align 8
  %11 = load ptr, ptr %3, align 8
  %12 = load ptr, ptr %4, align 8
  %13 = call i32 %10(ptr noundef %11, ptr noundef %12)
  ret i32 %13
}